target datalayout = "e-m:e-p270:32:32-p271:32:32-p272:64:64-i64:64-i128:128-f80:128-n8:16:32:64-S128"
target triple = "x86_64-pc-linux-gnu"

%"struct.folly::compression::zlib::Options" = type { i32, i32, i32, i32 }
%"class.folly::compression::zlib::(anonymous namespace)::ZlibStreamCodec" = type <{ %"class.folly::compression::StreamCodec.base", [3 x i8], %"struct.folly::compression::zlib::Options", [4 x i8], %"class.folly::Optional.10", %"class.folly::Optional.10", i32, i8, [3 x i8] }>
%"class.folly::compression::StreamCodec.base" = type <{ %"class.folly::compression::Codec.base", i32, %"class.folly::Range", %"class.folly::Optional", i8 }>
%"class.folly::compression::Codec.base" = type <{ ptr, i32 }>
%"class.folly::Range" = type { ptr, ptr }
%"class.folly::Optional" = type { %"struct.folly::Optional<unsigned long>::StorageTriviallyDestructible" }
%"struct.folly::Optional<unsigned long>::StorageTriviallyDestructible" = type <{ %union.anon, i8, [7 x i8] }>
%union.anon = type { i64 }
%"class.folly::Optional.10" = type { %"struct.folly::Optional<z_stream_s>::StorageTriviallyDestructible" }
%"struct.folly::Optional<z_stream_s>::StorageTriviallyDestructible" = type <{ %union.anon.11, i8, [7 x i8] }>
%union.anon.11 = type { %struct.z_stream_s }
%struct.z_stream_s = type { ptr, i32, i64, ptr, i32, i64, ptr, ptr, ptr, ptr, ptr, i32, i64, i64 }

; Function Attrs: mustprogress uwtable
define internal noundef i64 @_ZNK5folly11compression4zlib12_GLOBAL__N_115ZlibStreamCodec21doMaxCompressedLengthEm(ptr noundef nonnull align 8 dereferenceable(320) %0, i64 noundef %1) unnamed_addr #0 align 2 {
  %3 = alloca ptr, align 8
  %4 = alloca i64, align 8
  store ptr %0, ptr %3, align 8, !tbaa !30
  store i64 %1, ptr %4, align 8, !tbaa !84
  %5 = load ptr, ptr %3, align 8
  %6 = load i64, ptr %4, align 8, !tbaa !84
  %7 = call i64 @deflateBound(ptr noundef null, i64 noundef %6)
  %8 = getelementptr inbounds nuw %"class.folly::compression::zlib::(anonymous namespace)::ZlibStreamCodec", ptr %5, i32 0, i32 2
  %9 = getelementptr inbounds nuw %"struct.folly::compression::zlib::Options", ptr %8, i32 0, i32 0
  %10 = load i32, ptr %9, align 4, !tbaa !85
  %11 = icmp eq i32 %10, 1
  %12 = select i1 %11, i32 12, i32 0
  %13 = sext i32 %12 to i64
  %14 = add i64 %7, %13
  ret i64 %14
}