; Function Attrs: mustprogress uwtable
define internal noundef i64 @_ZNK5folly11compression4zlib12_GLOBAL__N_115ZlibStreamCodec21doMaxCompressedLengthEm(ptr noundef nonnull readonly align 8 captures(none) dereferenceable(320) %0, i64 noundef %1) unnamed_addr #1 align 2 {
  %3 = tail call i64 @deflateBound(ptr noundef null, i64 noundef %1)
  %4 = getelementptr inbounds nuw i8, ptr %0, i64 52
  %5 = load i32, ptr %4, align 4, !tbaa !104
  %6 = icmp eq i32 %5, 1
  %7 = select i1 %6, i64 12, i64 0
  %8 = add i64 %7, %3
  ret i64 %8
}